; Function Attrs: mustprogress uwtable
define void @_ZN3nix16InstallableValue9getCursorERNS_9EvalStateE(ptr dead_on_unwind noalias nocapture writable writeonly sret(%"class.nix::ref.108") align 8 %0, ptr noundef nonnull align 8 dereferenceable(24) %1, ptr noundef nonnull align 8 dereferenceable(1248) %2) unnamed_addr #4 align 2 personality ptr @__gxx_personality_v0 {
  %4 = alloca %"class.std::vector", align 8
  %5 = load ptr, ptr %1, align 8
  %6 = getelementptr inbounds i8, ptr %5, i64 48
  %7 = load ptr, ptr %6, align 8
  call void %7(ptr dead_on_unwind nonnull writable sret(%"class.std::vector") align 8 %4, ptr noundef nonnull align 8 dereferenceable(24) %1, ptr noundef nonnull align 8 dereferenceable(1248) %2)
  %8 = getelementptr inbounds i8, ptr %4, i64 8
  %9 = load ptr, ptr %8, align 8
  %10 = load ptr, ptr %4, align 8
  %.not.i.i.not = icmp eq ptr %9, %10
  br i1 %.not.i.i.not, label %11, label %_ZNSt6vectorIN3nix3refINS0_10eval_cache10AttrCursorEEESaIS4_EE2atEm.exit

11:                                               ; preds = %3
  invoke void (ptr, ...) @_ZSt24__throw_out_of_range_fmtPKcz(ptr noundef nonnull @.str.10, i64 noundef 0, i64 noundef 0) #25
          to label %.noexc unwind label %65

.noexc:                                           ; preds = %11
  unreachable

_ZNSt6vectorIN3nix3refINS0_10eval_cache10AttrCursorEEESaIS4_EE2atEm.exit: ; preds = %3
  %12 = load ptr, ptr %10, align 8
  store ptr %12, ptr %0, align 8
  %13 = getelementptr inbounds i8, ptr %0, i64 8
  %14 = getelementptr inbounds i8, ptr %10, i64 8
  %15 = load ptr, ptr %14, align 8
  store ptr %15, ptr %13, align 8
  %.not.i.i.i.i = icmp eq ptr %15, null
  br i1 %.not.i.i.i.i, label %_ZN3nix3refINS_10eval_cache10AttrCursorEEC2ERKS3_.exit, label %16

16:                                               ; preds = %_ZNSt6vectorIN3nix3refINS0_10eval_cache10AttrCursorEEESaIS4_EE2atEm.exit
  %17 = getelementptr inbounds i8, ptr %15, i64 8
  %18 = load i8, ptr @__libc_single_threaded, align 1
  %.not.i.i.i.i.i = icmp eq i8 %18, 0
  br i1 %.not.i.i.i.i.i, label %22, label %19

19:                                               ; preds = %16
  %20 = load i32, ptr %17, align 4
  %21 = add nsw i32 %20, 1
  store i32 %21, ptr %17, align 4
  br label %_ZN3nix3refINS_10eval_cache10AttrCursorEEC2ERKS3_.exit

22:                                               ; preds = %16
  %23 = atomicrmw volatile add ptr %17, i32 1 acq_rel, align 4
  %.pre = load ptr, ptr %4, align 8
  br label %_ZN3nix3refINS_10eval_cache10AttrCursorEEC2ERKS3_.exit

_ZN3nix3refINS_10eval_cache10AttrCursorEEC2ERKS3_.exit: ; preds = %_ZNSt6vectorIN3nix3refINS0_10eval_cache10AttrCursorEEESaIS4_EE2atEm.exit, %19, %22
  %24 = phi ptr [ %10, %_ZNSt6vectorIN3nix3refINS0_10eval_cache10AttrCursorEEESaIS4_EE2atEm.exit ], [ %10, %19 ], [ %.pre, %22 ]
  %25 = load ptr, ptr %8, align 8
  %.not4.i.i.i.i = icmp eq ptr %24, %25
  br i1 %.not4.i.i.i.i, label %_ZSt8_DestroyIPN3nix3refINS0_10eval_cache10AttrCursorEEES4_EvT_S6_RSaIT0_E.exit.i, label %.lr.ph.i.i.i.i

.lr.ph.i.i.i.i:                                   ; preds = %_ZN3nix3refINS_10eval_cache10AttrCursorEEC2ERKS3_.exit, %_ZSt8_DestroyIN3nix3refINS0_10eval_cache10AttrCursorEEEEvPT_.exit.i.i.i.i
  %.05.i.i.i.i = phi ptr [ %62, %_ZSt8_DestroyIN3nix3refINS0_10eval_cache10AttrCursorEEEEvPT_.exit.i.i.i.i ], [ %24, %_ZN3nix3refINS_10eval_cache10AttrCursorEEC2ERKS3_.exit ]
  %26 = getelementptr inbounds i8, ptr %.05.i.i.i.i, i64 8
  %27 = load ptr, ptr %26, align 8
  %.not.i.i.i.i.i.i.i.i.i.i = icmp eq ptr %27, null
  br i1 %.not.i.i.i.i.i.i.i.i.i.i, label %_ZSt8_DestroyIN3nix3refINS0_10eval_cache10AttrCursorEEEEvPT_.exit.i.i.i.i, label %28

28:                                               ; preds = %.lr.ph.i.i.i.i
  %29 = getelementptr inbounds i8, ptr %27, i64 8
  %30 = load atomic i64, ptr %29 acquire, align 8
  %31 = icmp eq i64 %30, 4294967297
  %32 = trunc i64 %30 to i32
  br i1 %31, label %33, label %38

33:                                               ; preds = %28
  store i32 0, ptr %29, align 8
  %34 = getelementptr inbounds i8, ptr %27, i64 12
  store i32 0, ptr %34, align 4
  %35 = load ptr, ptr %27, align 8
  %36 = getelementptr inbounds i8, ptr %35, i64 16
  %37 = load ptr, ptr %36, align 8
  call void %37(ptr noundef nonnull align 8 dereferenceable(16) %27) #24
  br label %_ZNSt16_Sp_counted_baseILN9__gnu_cxx12_Lock_policyE2EE24_M_release_last_use_coldEv.exit.sink.split.i.i.i.i.i.i.i.i.i.i.i

38:                                               ; preds = %28
  %39 = load i8, ptr @__libc_single_threaded, align 1
  %.not.i.i.i.i.i.i.i.i.i.i.i = icmp eq i8 %39, 0
  br i1 %.not.i.i.i.i.i.i.i.i.i.i.i, label %42, label %40

40:                                               ; preds = %38
  %41 = add nsw i32 %32, -1
  store i32 %41, ptr %29, align 4
  br label %44

42:                                               ; preds = %38
  %43 = atomicrmw volatile add ptr %29, i32 -1 acq_rel, align 4
  br label %44

44:                                               ; preds = %42, %40
  %.0.i.i.i.i.i.i.i.i.i.i.i = phi i32 [ %32, %40 ], [ %43, %42 ]
  %45 = icmp eq i32 %.0.i.i.i.i.i.i.i.i.i.i.i, 1
  br i1 %45, label %46, label %_ZSt8_DestroyIN3nix3refINS0_10eval_cache10AttrCursorEEEEvPT_.exit.i.i.i.i

46:                                               ; preds = %44
  %47 = load ptr, ptr %27, align 8
  %48 = getelementptr inbounds i8, ptr %47, i64 16
  %49 = load ptr, ptr %48, align 8
  call void %49(ptr noundef nonnull align 8 dereferenceable(16) %27) #24
  %50 = getelementptr inbounds i8, ptr %27, i64 12
  %51 = load i8, ptr @__libc_single_threaded, align 1
  %.not.i.i.i.i.i.i.i.i.i.i.i.i.i = icmp eq i8 %51, 0
  br i1 %.not.i.i.i.i.i.i.i.i.i.i.i.i.i, label %55, label %52

52:                                               ; preds = %46
  %53 = load i32, ptr %50, align 4
  %54 = add nsw i32 %53, -1
  store i32 %54, ptr %50, align 4
  br label %57

55:                                               ; preds = %46
  %56 = atomicrmw volatile add ptr %50, i32 -1 acq_rel, align 4
  br label %57

57:                                               ; preds = %55, %52
  %.0.i.i.i.i.i.i.i.i.i.i.i.i.i = phi i32 [ %53, %52 ], [ %56, %55 ]
  %58 = icmp eq i32 %.0.i.i.i.i.i.i.i.i.i.i.i.i.i, 1
  br i1 %58, label %_ZNSt16_Sp_counted_baseILN9__gnu_cxx12_Lock_policyE2EE24_M_release_last_use_coldEv.exit.sink.split.i.i.i.i.i.i.i.i.i.i.i, label %_ZSt8_DestroyIN3nix3refINS0_10eval_cache10AttrCursorEEEEvPT_.exit.i.i.i.i

_ZNSt16_Sp_counted_baseILN9__gnu_cxx12_Lock_policyE2EE24_M_release_last_use_coldEv.exit.sink.split.i.i.i.i.i.i.i.i.i.i.i: ; preds = %57, %33
  %59 = load ptr, ptr %27, align 8
  %60 = getelementptr inbounds i8, ptr %59, i64 24
  %61 = load ptr, ptr %60, align 8
  call void %61(ptr noundef nonnull align 8 dereferenceable(16) %27) #24
  br label %_ZSt8_DestroyIN3nix3refINS0_10eval_cache10AttrCursorEEEEvPT_.exit.i.i.i.i

_ZSt8_DestroyIN3nix3refINS0_10eval_cache10AttrCursorEEEEvPT_.exit.i.i.i.i: ; preds = %_ZNSt16_Sp_counted_baseILN9__gnu_cxx12_Lock_policyE2EE24_M_release_last_use_coldEv.exit.sink.split.i.i.i.i.i.i.i.i.i.i.i, %57, %44, %.lr.ph.i.i.i.i
  %62 = getelementptr inbounds i8, ptr %.05.i.i.i.i, i64 16
  %.not.i.i.i.i3 = icmp eq ptr %62, %25
  br i1 %.not.i.i.i.i3, label %_ZSt8_DestroyIPN3nix3refINS0_10eval_cache10AttrCursorEEES4_EvT_S6_RSaIT0_E.exitthread-pre-split.i, label %.lr.ph.i.i.i.i, !llvm.loop !10

_ZSt8_DestroyIPN3nix3refINS0_10eval_cache10AttrCursorEEES4_EvT_S6_RSaIT0_E.exitthread-pre-split.i: ; preds = %_ZSt8_DestroyIN3nix3refINS0_10eval_cache10AttrCursorEEEEvPT_.exit.i.i.i.i
  %.pr.i = load ptr, ptr %4, align 8
  br label %_ZSt8_DestroyIPN3nix3refINS0_10eval_cache10AttrCursorEEES4_EvT_S6_RSaIT0_E.exit.i

_ZSt8_DestroyIPN3nix3refINS0_10eval_cache10AttrCursorEEES4_EvT_S6_RSaIT0_E.exit.i: ; preds = %_ZSt8_DestroyIPN3nix3refINS0_10eval_cache10AttrCursorEEES4_EvT_S6_RSaIT0_E.exitthread-pre-split.i, %_ZN3nix3refINS_10eval_cache10AttrCursorEEC2ERKS3_.exit
  %63 = phi ptr [ %.pr.i, %_ZSt8_DestroyIPN3nix3refINS0_10eval_cache10AttrCursorEEES4_EvT_S6_RSaIT0_E.exitthread-pre-split.i ], [ %24, %_ZN3nix3refINS_10eval_cache10AttrCursorEEC2ERKS3_.exit ]
  %.not.i.i.i = icmp eq ptr %63, null
  br i1 %.not.i.i.i, label %_ZNSt6vectorIN3nix3refINS0_10eval_cache10AttrCursorEEESaIS4_EED2Ev.exit, label %64

64:                                               ; preds = %_ZSt8_DestroyIPN3nix3refINS0_10eval_cache10AttrCursorEEES4_EvT_S6_RSaIT0_E.exit.i
  call void @_ZdlPv(ptr noundef nonnull %63) #27
  br label %_ZNSt6vectorIN3nix3refINS0_10eval_cache10AttrCursorEEESaIS4_EED2Ev.exit

_ZNSt6vectorIN3nix3refINS0_10eval_cache10AttrCursorEEESaIS4_EED2Ev.exit: ; preds = %_ZSt8_DestroyIPN3nix3refINS0_10eval_cache10AttrCursorEEES4_EvT_S6_RSaIT0_E.exit.i, %64
  ret void

65:                                               ; preds = %11
  %66 = landingpad { ptr, i32 }
          cleanup
  call void @_ZNSt6vectorIN3nix3refINS0_10eval_cache10AttrCursorEEESaIS4_EED2Ev(ptr noundef nonnull align 8 dereferenceable(24) %4) #24
  resume { ptr, i32 } %66
}